target datalayout = "e-m:e-p270:32:32-p271:32:32-p272:64:64-i64:64-i128:128-f80:128-n8:16:32:64-S128"
target triple = "x86_64-pc-linux-gnu"

%struct.semholder_s = type { ptr, ptr, ptr, ptr, i16 }
%struct.dq_queue_s = type { ptr, ptr }
%struct.sem_s = type { i16, i8, %struct.dq_queue_s, ptr }
%struct.tcb_s = type { ptr, ptr, ptr, i32, i8, i8, ptr, %union.entry_u, i8, i8, i8, ptr, i16, i16, i16, %struct.wdog_s, i64, ptr, ptr, ptr, %struct.sigset_s, %struct.sigset_s, %struct.sq_queue_s, %struct.sq_queue_s, %struct.siginfo, ptr, %struct.xcptcontext, [32 x i8] }
%union.entry_u = type { ptr }
%struct.wdog_s = type { ptr, i64, ptr, i64 }
%struct.sigset_s = type { [2 x i32] }
%struct.sq_queue_s = type { ptr, ptr }
%struct.siginfo = type { i8, i8, i8, %union.sigval, i32, i32, ptr }
%union.sigval = type { ptr }
%struct.xcptcontext = type { ptr, i64, i64, i64, [90 x i64] }

@g_readytorun = external global %struct.dq_queue_s, align 8

; Function Attrs: nounwind uwtable
define void @nxsem_release_holder(ptr noundef %0) #0 {
  %2 = alloca ptr, align 8
  %3 = alloca ptr, align 8
  %4 = alloca i8, align 1
  %5 = alloca ptr, align 8
  store ptr %0, ptr %2, align 8
  %6 = load ptr, ptr @g_readytorun, align 8
  store ptr %6, ptr %3, align 8
  %7 = load ptr, ptr %2, align 8
  %8 = getelementptr inbounds %struct.sem_s, ptr %7, i32 0, i32 1
  %9 = load i8, ptr %8, align 2
  %10 = zext i8 %9 to i32
  %11 = and i32 %10, 3
  %12 = trunc i32 %11 to i8
  store i8 %12, ptr %4, align 1
  %13 = load ptr, ptr %3, align 8
  %14 = getelementptr inbounds %struct.tcb_s, ptr %13, i32 0, i32 3
  %15 = load i32, ptr %14, align 8
  %16 = icmp slt i32 %15, 1
  br i1 %16, label %45, label %17

17:                                               ; preds = %1
  %18 = load i8, ptr %4, align 1
  %19 = zext i8 %18 to i32
  %20 = icmp eq i32 %19, 1
  br i1 %20, label %21, label %45

21:                                               ; preds = %17
  %22 = load ptr, ptr %2, align 8
  %23 = getelementptr inbounds %struct.sem_s, ptr %22, i32 0, i32 3
  %24 = load ptr, ptr %23, align 8
  store ptr %24, ptr %5, align 8
  br label %25

25:                                               ; preds = %40, %21
  %26 = load ptr, ptr %5, align 8
  %27 = icmp ne ptr %26, null
  br i1 %27, label %28, label %44

28:                                               ; preds = %25
  %29 = load ptr, ptr %5, align 8
  %30 = getelementptr inbounds %struct.semholder_s, ptr %29, i32 0, i32 3
  %31 = load ptr, ptr %30, align 8
  %32 = load ptr, ptr %3, align 8
  %33 = icmp eq ptr %31, %32
  br i1 %33, label %34, label %39

34:                                               ; preds = %28
  %35 = load ptr, ptr %5, align 8
  %36 = getelementptr inbounds %struct.semholder_s, ptr %35, i32 0, i32 4
  %37 = load i16, ptr %36, align 8
  %38 = add i16 %37, -1
  store i16 %38, ptr %36, align 8
  br label %45

39:                                               ; preds = %28
  br label %40

40:                                               ; preds = %39
  %41 = load ptr, ptr %5, align 8
  %42 = getelementptr inbounds %struct.semholder_s, ptr %41, i32 0, i32 0
  %43 = load ptr, ptr %42, align 8
  store ptr %43, ptr %5, align 8
  br label %25, !llvm.loop !9

44:                                               ; preds = %25
  br label %45

45:                                               ; preds = %44, %34, %17, %1
  ret void
}