; Function Attrs: nofree norecurse nosync nounwind memory(readwrite, inaccessiblemem: none) uwtable
define void @nxsem_release_holder(ptr noundef readonly captures(none) %0) local_unnamed_addr #1 {
  %2 = load ptr, ptr @g_readytorun, align 8
  %3 = getelementptr inbounds nuw i8, ptr %0, i64 2
  %4 = load i8, ptr %3, align 2
  %5 = and i8 %4, 3
  %6 = getelementptr inbounds nuw i8, ptr %2, i64 24
  %7 = load i32, ptr %6, align 8
  %8 = icmp sgt i32 %7, 0
  %9 = icmp eq i8 %5, 1
  %or.cond = select i1 %8, i1 %9, i1 false
  br i1 %or.cond, label %10, label %.loopexit

10:                                               ; preds = %1
  %11 = getelementptr inbounds nuw i8, ptr %0, i64 24
  br label %12

12:                                               ; preds = %13, %10
  %.0.in = phi ptr [ %11, %10 ], [ %.0, %13 ]
  %.0 = load ptr, ptr %.0.in, align 8
  %.not = icmp eq ptr %.0, null
  br i1 %.not, label %.loopexit, label %13

13:                                               ; preds = %12
  %14 = getelementptr inbounds nuw i8, ptr %.0, i64 24
  %15 = load ptr, ptr %14, align 8
  %16 = icmp eq ptr %15, %2
  br i1 %16, label %17, label %12, !llvm.loop !12

17:                                               ; preds = %13
  %18 = getelementptr inbounds nuw i8, ptr %.0, i64 32
  %19 = load i16, ptr %18, align 8
  %20 = add i16 %19, -1
  store i16 %20, ptr %18, align 8
  br label %.loopexit

.loopexit:                                        ; preds = %12, %17, %1
  ret void
}